; Function Attrs: mustprogress uwtable
define void @_ZN4File15GetOpenFileTimeEP7RarTimeS1_S1_(ptr nocapture noundef nonnull readonly align 8 dereferenceable(8256) %0, ptr noundef %1, ptr noundef %2, ptr noundef %3) local_unnamed_addr #2 align 2 {
  %5 = alloca %struct.stat, align 8
  %6 = getelementptr inbounds i8, ptr %0, i64 8
  %7 = load i64, ptr %6, align 8
  %8 = trunc i64 %7 to i32
  %9 = call i32 @fstat64(i32 noundef %8, ptr noundef nonnull %5) #18
  %.not.i = icmp eq ptr %1, null
  br i1 %.not.i, label %17, label %10

10:                                               ; preds = %4
  %11 = getelementptr inbounds i8, ptr %5, i64 88
  %12 = load i64, ptr %11, align 8
  %13 = mul i64 %12, 1000000000
  %14 = getelementptr inbounds i8, ptr %5, i64 96
  %15 = load i64, ptr %14, align 8
  %16 = add i64 %13, %15
  tail call void @_ZN7RarTime9SetUnixNSEm(ptr noundef nonnull align 8 dereferenceable(8) %1, i64 noundef %16)
  br label %17

17:                                               ; preds = %10, %4
  %.not14.i = icmp eq ptr %2, null
  br i1 %.not14.i, label %25, label %18

18:                                               ; preds = %17
  %19 = getelementptr inbounds i8, ptr %5, i64 104
  %20 = load i64, ptr %19, align 8
  %21 = mul i64 %20, 1000000000
  %22 = getelementptr inbounds i8, ptr %5, i64 112
  %23 = load i64, ptr %22, align 8
  %24 = add i64 %21, %23
  tail call void @_ZN7RarTime9SetUnixNSEm(ptr noundef nonnull align 8 dereferenceable(8) %2, i64 noundef %24)
  br label %25

25:                                               ; preds = %18, %17
  %.not15.i = icmp eq ptr %3, null
  br i1 %.not15.i, label %_ZN4File13StatToRarTimeER4statP7RarTimeS3_S3_.exit, label %26

26:                                               ; preds = %25
  %27 = getelementptr inbounds i8, ptr %5, i64 72
  %28 = load i64, ptr %27, align 8
  %29 = mul i64 %28, 1000000000
  %30 = getelementptr inbounds i8, ptr %5, i64 80
  %31 = load i64, ptr %30, align 8
  %32 = add i64 %29, %31
  tail call void @_ZN7RarTime9SetUnixNSEm(ptr noundef nonnull align 8 dereferenceable(8) %3, i64 noundef %32)
  br label %_ZN4File13StatToRarTimeER4statP7RarTimeS3_S3_.exit

_ZN4File13StatToRarTimeER4statP7RarTimeS3_S3_.exit: ; preds = %25, %26
  ret void
}